target datalayout = "e-m:e-p270:32:32-p271:32:32-p272:64:64-i64:64-i128:128-f80:128-n8:16:32:64-S128"
target triple = "x86_64-pc-linux-gnu"

%struct.BufFile = type { i32, ptr, i8, i8, i8, ptr, ptr, ptr, i32, i64, i32, i32, %union.PGAlignedBlock }
%union.PGAlignedBlock = type { double, [8184 x i8] }

@.str.1 = private unnamed_addr constant [10 x i8] c"buffile.c\00", align 1
@.str.5 = private unnamed_addr constant [58 x i8] c"could not append BufFile with non-matching resource owner\00", align 1
@__func__.BufFileAppend = private unnamed_addr constant [14 x i8] c"BufFileAppend\00", align 1

; Function Attrs: nounwind uwtable
define dso_local i64 @BufFileAppend(ptr noundef %0, ptr noundef %1) #0 {
  %3 = alloca ptr, align 8
  %4 = alloca ptr, align 8
  %5 = alloca i64, align 8
  %6 = alloca i32, align 4
  %7 = alloca i32, align 4
  store ptr %0, ptr %3, align 8
  store ptr %1, ptr %4, align 8
  call void @llvm.lifetime.start.p0(i64 8, ptr %5) #8
  %8 = load ptr, ptr %3, align 8
  %9 = getelementptr inbounds nuw %struct.BufFile, ptr %8, i32 0, i32 0
  %10 = load i32, ptr %9, align 8
  %11 = sext i32 %10 to i64
  %12 = mul i64 %11, 131072
  store i64 %12, ptr %5, align 8
  call void @llvm.lifetime.start.p0(i64 4, ptr %6) #8
  %13 = load ptr, ptr %3, align 8
  %14 = getelementptr inbounds nuw %struct.BufFile, ptr %13, i32 0, i32 0
  %15 = load i32, ptr %14, align 8
  %16 = load ptr, ptr %4, align 8
  %17 = getelementptr inbounds nuw %struct.BufFile, ptr %16, i32 0, i32 0
  %18 = load i32, ptr %17, align 8
  %19 = add i32 %15, %18
  store i32 %19, ptr %6, align 4
  call void @llvm.lifetime.start.p0(i64 4, ptr %7) #8
  %20 = load ptr, ptr %3, align 8
  %21 = getelementptr inbounds nuw %struct.BufFile, ptr %20, i32 0, i32 7
  %22 = load ptr, ptr %21, align 8
  %23 = load ptr, ptr %4, align 8
  %24 = getelementptr inbounds nuw %struct.BufFile, ptr %23, i32 0, i32 7
  %25 = load ptr, ptr %24, align 8
  %26 = icmp ne ptr %22, %25
  br i1 %26, label %27, label %38

27:                                               ; preds = %2
  br label %28

28:                                               ; preds = %27
  br i1 true, label %29, label %31

29:                                               ; preds = %28
  %30 = call zeroext i1 @errstart_cold(i32 noundef 21, ptr noundef null) #9
  br i1 %30, label %33, label %35

31:                                               ; preds = %28
  %32 = call zeroext i1 @errstart(i32 noundef 21, ptr noundef null)
  br i1 %32, label %33, label %35

33:                                               ; preds = %31, %29
  %34 = call i32 (ptr, ...) @errmsg_internal(ptr noundef @.str.5)
  call void @errfinish(ptr noundef @.str.1, i32 noundef 912, ptr noundef @__func__.BufFileAppend)
  br label %35

35:                                               ; preds = %33, %31, %29
  unreachable

36:                                               ; No predecessors!
  br label %37

37:                                               ; preds = %36
  br label %38

38:                                               ; preds = %37, %2
  %39 = load ptr, ptr %3, align 8
  %40 = getelementptr inbounds nuw %struct.BufFile, ptr %39, i32 0, i32 1
  %41 = load ptr, ptr %40, align 8
  %42 = load i32, ptr %6, align 4
  %43 = sext i32 %42 to i64
  %44 = mul i64 4, %43
  %45 = call ptr @repalloc(ptr noundef %41, i64 noundef %44)
  %46 = load ptr, ptr %3, align 8
  %47 = getelementptr inbounds nuw %struct.BufFile, ptr %46, i32 0, i32 1
  store ptr %45, ptr %47, align 8
  %48 = load ptr, ptr %3, align 8
  %49 = getelementptr inbounds nuw %struct.BufFile, ptr %48, i32 0, i32 0
  %50 = load i32, ptr %49, align 8
  store i32 %50, ptr %7, align 4
  br label %51

51:                                               ; preds = %73, %38
  %52 = load i32, ptr %7, align 4
  %53 = load i32, ptr %6, align 4
  %54 = icmp slt i32 %52, %53
  br i1 %54, label %55, label %76

55:                                               ; preds = %51
  %56 = load ptr, ptr %4, align 8
  %57 = getelementptr inbounds nuw %struct.BufFile, ptr %56, i32 0, i32 1
  %58 = load ptr, ptr %57, align 8
  %59 = load i32, ptr %7, align 4
  %60 = load ptr, ptr %3, align 8
  %61 = getelementptr inbounds nuw %struct.BufFile, ptr %60, i32 0, i32 0
  %62 = load i32, ptr %61, align 8
  %63 = sub i32 %59, %62
  %64 = sext i32 %63 to i64
  %65 = getelementptr inbounds i32, ptr %58, i64 %64
  %66 = load i32, ptr %65, align 4
  %67 = load ptr, ptr %3, align 8
  %68 = getelementptr inbounds nuw %struct.BufFile, ptr %67, i32 0, i32 1
  %69 = load ptr, ptr %68, align 8
  %70 = load i32, ptr %7, align 4
  %71 = sext i32 %70 to i64
  %72 = getelementptr inbounds i32, ptr %69, i64 %71
  store i32 %66, ptr %72, align 4
  br label %73

73:                                               ; preds = %55
  %74 = load i32, ptr %7, align 4
  %75 = add i32 %74, 1
  store i32 %75, ptr %7, align 4
  br label %51, !llvm.loop !14

76:                                               ; preds = %51
  %77 = load i32, ptr %6, align 4
  %78 = load ptr, ptr %3, align 8
  %79 = getelementptr inbounds nuw %struct.BufFile, ptr %78, i32 0, i32 0
  store i32 %77, ptr %79, align 8
  %80 = load i64, ptr %5, align 8
  call void @llvm.lifetime.end.p0(i64 4, ptr %7) #8
  call void @llvm.lifetime.end.p0(i64 4, ptr %6) #8
  call void @llvm.lifetime.end.p0(i64 8, ptr %5) #8
  ret i64 %80
}