; Function Attrs: nounwind uwtable
define dso_local range(i64 -281474976710656, 281474976579585) i64 @BufFileAppend(ptr noundef captures(none) %0, ptr noundef readonly captures(none) %1) local_unnamed_addr #0 {
  %3 = load i32, ptr %0, align 8
  %4 = load i32, ptr %1, align 8
  %5 = add i32 %4, %3
  %6 = getelementptr inbounds nuw i8, ptr %0, i64 40
  %7 = load ptr, ptr %6, align 8
  %8 = getelementptr inbounds nuw i8, ptr %1, i64 40
  %9 = load ptr, ptr %8, align 8
  %.not = icmp eq ptr %7, %9
  br i1 %.not, label %13, label %10

10:                                               ; preds = %2
  %11 = tail call zeroext i1 @errstart_cold(i32 noundef 21, ptr noundef null) #11
  tail call void @llvm.assume(i1 %11)
  %12 = tail call i32 (ptr, ...) @errmsg_internal(ptr noundef nonnull @.str.5) #10
  tail call void @errfinish(ptr noundef nonnull @.str.1, i32 noundef 912, ptr noundef nonnull @__func__.BufFileAppend) #10
  unreachable

13:                                               ; preds = %2
  %14 = getelementptr inbounds nuw i8, ptr %0, i64 8
  %15 = load ptr, ptr %14, align 8
  %16 = sext i32 %5 to i64
  %17 = shl nsw i64 %16, 2
  %18 = tail call ptr @repalloc(ptr noundef %15, i64 noundef %17) #10
  store ptr %18, ptr %14, align 8
  %19 = load i32, ptr %0, align 8
  %20 = icmp slt i32 %19, %5
  br i1 %20, label %.lr.ph, label %._crit_edge

.lr.ph:                                           ; preds = %13
  %21 = getelementptr inbounds nuw i8, ptr %1, i64 8
  %22 = sext i32 %19 to i64
  br label %23

23:                                               ; preds = %.lr.ph, %23
  %indvars.iv = phi i64 [ %22, %.lr.ph ], [ %indvars.iv.next, %23 ]
  %24 = load ptr, ptr %21, align 8
  %25 = load i32, ptr %0, align 8
  %26 = trunc nsw i64 %indvars.iv to i32
  %27 = sub i32 %26, %25
  %28 = sext i32 %27 to i64
  %29 = getelementptr inbounds i32, ptr %24, i64 %28
  %30 = load i32, ptr %29, align 4
  %31 = load ptr, ptr %14, align 8
  %32 = getelementptr inbounds i32, ptr %31, i64 %indvars.iv
  store i32 %30, ptr %32, align 4
  %indvars.iv.next = add nsw i64 %indvars.iv, 1
  %exitcond.not = icmp eq i64 %indvars.iv.next, %16
  br i1 %exitcond.not, label %._crit_edge, label %23, !llvm.loop !13

._crit_edge:                                      ; preds = %23, %13
  %33 = sext i32 %3 to i64
  %34 = shl nsw i64 %33, 17
  store i32 %5, ptr %0, align 8
  ret i64 %34
}